; Function Attrs: mustprogress nounwind uwtable
define hidden void @_ZN30JvmtiConstantPoolReconstituterC2EP13InstanceKlass(ptr noundef nonnull align 8 dereferenceable(52) %0, ptr noundef %1) unnamed_addr #0 align 2 {
  %3 = alloca %class.constantPoolHandle, align 8
  %4 = getelementptr inbounds i8, ptr %0, i64 24
  tail call void @llvm.memset.p0.i64(ptr noundef nonnull align 8 dereferenceable(16) %4, i8 0, i64 16, i1 false)
  %5 = getelementptr inbounds i8, ptr %0, i64 48
  store i32 0, ptr %5, align 8
  %6 = getelementptr inbounds i8, ptr %0, i64 40
  store ptr %1, ptr %6, align 8
  %7 = tail call align 8 ptr @llvm.threadlocal.address.p0(ptr align 8 @_ZN6Thread12_thr_currentE)
  %8 = load ptr, ptr %7, align 8
  %9 = getelementptr inbounds i8, ptr %1, i64 224
  %10 = load ptr, ptr %9, align 8
  store ptr %10, ptr %3, align 8
  %11 = getelementptr inbounds i8, ptr %3, i64 8
  store ptr %8, ptr %11, align 8
  %.not.i = icmp eq ptr %10, null
  br i1 %.not.i, label %_ZN18constantPoolHandleC2EP6ThreadP12ConstantPool.exit, label %12

12:                                               ; preds = %2
  %13 = getelementptr inbounds i8, ptr %8, i64 816
  %14 = load ptr, ptr %13, align 8
  %15 = load i32, ptr %14, align 8
  %16 = getelementptr inbounds i8, ptr %14, i64 4
  %17 = load i32, ptr %16, align 4
  %18 = icmp eq i32 %15, %17
  br i1 %18, label %19, label %_ZN26GrowableArrayWithAllocatorIP8Metadata13GrowableArrayIS1_EE4pushERKS1_.exit.i

19:                                               ; preds = %12
  %20 = add nsw i32 %15, 1
  %21 = icmp sgt i32 %15, -1
  %22 = xor i32 %15, -2147483648
  %23 = and i32 %22, %20
  %24 = icmp eq i32 %23, 0
  %25 = and i1 %21, %24
  %26 = tail call range(i32 0, 33) i32 @llvm.ctlz.i32(i32 %20, i1 true)
  %27 = sub nuw nsw i32 32, %26
  %28 = shl nuw i32 1, %27
  %.0.i.i.i.i.i.i = select i1 %25, i32 %20, i32 %28
  tail call void @_ZN26GrowableArrayWithAllocatorIP8Metadata13GrowableArrayIS1_EE9expand_toEi(ptr noundef nonnull align 8 dereferenceable(16) %14, i32 noundef %.0.i.i.i.i.i.i)
  %.pre.i.i.i = load i32, ptr %14, align 8
  br label %_ZN26GrowableArrayWithAllocatorIP8Metadata13GrowableArrayIS1_EE4pushERKS1_.exit.i

_ZN26GrowableArrayWithAllocatorIP8Metadata13GrowableArrayIS1_EE4pushERKS1_.exit.i: ; preds = %19, %12
  %29 = phi i32 [ %.pre.i.i.i, %19 ], [ %15, %12 ]
  %30 = add nsw i32 %29, 1
  store i32 %30, ptr %14, align 8
  %31 = getelementptr inbounds i8, ptr %14, i64 8
  %32 = load ptr, ptr %31, align 8
  %33 = sext i32 %29 to i64
  %34 = getelementptr inbounds ptr, ptr %32, i64 %33
  store ptr %10, ptr %34, align 8
  br label %_ZN18constantPoolHandleC2EP6ThreadP12ConstantPool.exit

_ZN18constantPoolHandleC2EP6ThreadP12ConstantPool.exit: ; preds = %2, %_ZN26GrowableArrayWithAllocatorIP8Metadata13GrowableArrayIS1_EE4pushERKS1_.exit.i
  %35 = call noundef nonnull align 8 dereferenceable(16) ptr @_ZN18constantPoolHandleaSERKS_(ptr noundef nonnull align 8 dereferenceable(16) %4, ptr noundef nonnull align 8 dereferenceable(16) %3) #12
  call void @_ZN18constantPoolHandleD1Ev(ptr noundef nonnull align 8 dereferenceable(16) %3) #12
  %36 = call noundef ptr @_Z12AllocateHeapm8MEMFLAGSN17AllocFailStrategy13AllocFailEnumE(i64 noundef 2056, i8 noundef zeroext 11, i32 noundef 0) #12
  %37 = getelementptr inbounds i8, ptr %0, i64 8
  call void @llvm.memset.p0.i64(ptr noundef nonnull align 8 dereferenceable(2056) %36, i8 0, i64 2056, i1 false)
  store ptr %36, ptr %37, align 8
  %38 = call noundef ptr @_Z12AllocateHeapm8MEMFLAGSN17AllocFailStrategy13AllocFailEnumE(i64 noundef 2056, i8 noundef zeroext 11, i32 noundef 0) #12
  %39 = getelementptr inbounds i8, ptr %0, i64 16
  call void @llvm.memset.p0.i64(ptr noundef nonnull align 8 dereferenceable(2056) %38, i8 0, i64 2056, i1 false)
  store ptr %38, ptr %39, align 8
  %40 = load ptr, ptr %4, align 8
  %41 = load ptr, ptr %37, align 8
  %42 = call noundef i32 @_ZN12ConstantPool15hash_entries_toEPNS_10SymbolHashES1_(ptr noundef nonnull align 8 dereferenceable(68) %40, ptr noundef %41, ptr noundef %38) #12
  store i32 %42, ptr %0, align 8
  %43 = icmp eq i32 %42, 0
  br i1 %43, label %.sink.split, label %44

44:                                               ; preds = %_ZN18constantPoolHandleC2EP6ThreadP12ConstantPool.exit
  %45 = icmp slt i32 %42, 0
  br i1 %45, label %.sink.split, label %46

.sink.split:                                      ; preds = %44, %_ZN18constantPoolHandleC2EP6ThreadP12ConstantPool.exit
  %.sink = phi i32 [ 110, %_ZN18constantPoolHandleC2EP6ThreadP12ConstantPool.exit ], [ 113, %44 ]
  store i32 %.sink, ptr %5, align 8
  br label %46

46:                                               ; preds = %.sink.split, %44
  ret void
}